; Function Attrs: mustprogress nounwind uwtable
define hidden void @_ZN6google8protobuf25EncodedDescriptorDatabaseD0Ev(ptr noundef nonnull align 8 dereferenceable(40) initializes((0, 8)) %0) unnamed_addr #8 align 2 personality ptr @__gxx_personality_v0 {
  store ptr getelementptr inbounds nuw inrange(-16, 56) (i8, ptr @_ZTVN6google8protobuf25EncodedDescriptorDatabaseE, i64 16), ptr %0, align 8, !tbaa !3
  %2 = getelementptr inbounds nuw i8, ptr %0, i64 16
  %3 = load ptr, ptr %2, align 8, !tbaa !240
  %4 = getelementptr inbounds nuw i8, ptr %0, i64 24
  %5 = load ptr, ptr %4, align 8, !tbaa !240
  %.not7.i = icmp eq ptr %3, %5
  br i1 %.not7.i, label %._crit_edge.i, label %.lr.ph.i

._crit_edge.loopexit.i:                           ; preds = %.lr.ph.i
  %.pre.i = load ptr, ptr %2, align 8, !tbaa !126
  br label %._crit_edge.i

._crit_edge.i:                                    ; preds = %._crit_edge.loopexit.i, %1
  %6 = phi ptr [ %.pre.i, %._crit_edge.loopexit.i ], [ %3, %1 ]
  %.not.i.i.i.i = icmp eq ptr %6, null
  br i1 %.not.i.i.i.i, label %_ZNSt6vectorIPvSaIS0_EED2Ev.exit.i, label %7

7:                                                ; preds = %._crit_edge.i
  tail call void @_ZdlPv(ptr noundef nonnull %6) #27
  br label %_ZNSt6vectorIPvSaIS0_EED2Ev.exit.i

_ZNSt6vectorIPvSaIS0_EED2Ev.exit.i:               ; preds = %7, %._crit_edge.i
  %8 = getelementptr inbounds nuw i8, ptr %0, i64 8
  %9 = load ptr, ptr %8, align 8, !tbaa !81
  %.not.i.i = icmp eq ptr %9, null
  br i1 %.not.i.i, label %_ZN6google8protobuf25EncodedDescriptorDatabaseD2Ev.exit, label %_ZNKSt14default_deleteIN6google8protobuf25EncodedDescriptorDatabase15DescriptorIndexEEclEPS3_.exit.i.i

_ZNKSt14default_deleteIN6google8protobuf25EncodedDescriptorDatabase15DescriptorIndexEEclEPS3_.exit.i.i: ; preds = %_ZNSt6vectorIPvSaIS0_EED2Ev.exit.i
  tail call void @_ZN6google8protobuf25EncodedDescriptorDatabase15DescriptorIndexD2Ev(ptr noundef nonnull align 8 dereferenceable(240) %9) #26
  tail call void @_ZdlPv(ptr noundef nonnull %9) #27
  br label %_ZN6google8protobuf25EncodedDescriptorDatabaseD2Ev.exit

.lr.ph.i:                                         ; preds = %1, %.lr.ph.i
  %.sroa.04.08.i = phi ptr [ %11, %.lr.ph.i ], [ %3, %1 ]
  %10 = load ptr, ptr %.sroa.04.08.i, align 8, !tbaa !38
  tail call void @_ZdlPv(ptr noundef %10) #26
  %11 = getelementptr inbounds nuw i8, ptr %.sroa.04.08.i, i64 8
  %.not.i = icmp eq ptr %11, %5
  br i1 %.not.i, label %._crit_edge.loopexit.i, label %.lr.ph.i

_ZN6google8protobuf25EncodedDescriptorDatabaseD2Ev.exit: ; preds = %_ZNSt6vectorIPvSaIS0_EED2Ev.exit.i, %_ZNKSt14default_deleteIN6google8protobuf25EncodedDescriptorDatabase15DescriptorIndexEEclEPS3_.exit.i.i
  tail call void @_ZdlPv(ptr noundef nonnull %0) #27
  ret void
}